; Function Attrs: mustprogress nofree norecurse nosync nounwind willreturn memory(write, argmem: readwrite, inaccessiblemem: none) uwtable
define noundef zeroext i1 @pkpy_push_null(ptr noundef captures(none) %0) local_unnamed_addr #13 {
  %2 = getelementptr inbounds nuw i8, ptr %0, i64 264488
  %3 = load ptr, ptr %2, align 8
  %.not = icmp eq ptr %3, null
  br i1 %.not, label %4, label %9

4:                                                ; preds = %1
  %5 = load ptr, ptr @_ZN4pkpy7PY_NULLE, align 8
  %6 = getelementptr inbounds nuw i8, ptr %0, i64 264296
  %7 = load ptr, ptr %6, align 8
  %8 = getelementptr inbounds nuw i8, ptr %7, i64 8
  store ptr %8, ptr %6, align 8
  store ptr %5, ptr %7, align 8
  br label %9

9:                                                ; preds = %1, %4
  ret i1 %.not
}